; Function Attrs: mustprogress uwtable
define hidden void @_ZNK19OpenColorIO_v2_5dev10OpRcPtrVec18getDynamicPropertyENS_19DynamicPropertyTypeE(ptr dead_on_unwind noalias writable sret(%"class.std::shared_ptr") align 8 %0, ptr noundef nonnull readonly align 8 captures(none) dereferenceable(144) %1, i32 noundef %2) local_unnamed_addr #6 align 2 personality ptr @__gxx_personality_v0 {
  %4 = load ptr, ptr %1, align 8, !tbaa !202
  %5 = getelementptr inbounds nuw i8, ptr %1, i64 8
  %6 = load ptr, ptr %5, align 8, !tbaa !202
  %.not17 = icmp eq ptr %4, %6
  br i1 %.not17, label %._crit_edge, label %.lr.ph

.lr.ph:                                           ; preds = %3, %.critedge
  %.sroa.010.018 = phi ptr [ %12, %.critedge ], [ %4, %3 ]
  %7 = load ptr, ptr %.sroa.010.018, align 8, !tbaa !59
  %8 = load ptr, ptr %7, align 8, !tbaa !3
  %9 = getelementptr inbounds nuw i8, ptr %8, i64 160
  %10 = load ptr, ptr %9, align 8
  %11 = tail call noundef zeroext i1 %10(ptr noundef nonnull align 8 dereferenceable(24) %7, i32 noundef %2)
  br i1 %11, label %17, label %.critedge

.critedge:                                        ; preds = %.lr.ph
  %12 = getelementptr inbounds nuw i8, ptr %.sroa.010.018, i64 16
  %.not = icmp eq ptr %12, %6
  br i1 %.not, label %._crit_edge, label %.lr.ph

._crit_edge:                                      ; preds = %.critedge, %3
  %13 = tail call ptr @__cxa_allocate_exception(i64 16) #26
  invoke void @_ZN19OpenColorIO_v2_5dev9ExceptionC1EPKc(ptr noundef nonnull align 8 dereferenceable(16) %13, ptr noundef nonnull @.str.20)
          to label %14 unwind label %15

14:                                               ; preds = %._crit_edge
  tail call void @__cxa_throw(ptr nonnull %13, ptr nonnull @_ZTIN19OpenColorIO_v2_5dev9ExceptionE, ptr nonnull @_ZN19OpenColorIO_v2_5dev9ExceptionD1Ev) #27
  unreachable

15:                                               ; preds = %._crit_edge
  %16 = landingpad { ptr, i32 }
          cleanup
  tail call void @__cxa_free_exception(ptr nonnull %13) #26
  resume { ptr, i32 } %16

17:                                               ; preds = %.lr.ph
  %18 = load ptr, ptr %.sroa.010.018, align 8, !tbaa !59
  %19 = load ptr, ptr %18, align 8, !tbaa !3
  %20 = getelementptr inbounds nuw i8, ptr %19, i64 168
  %21 = load ptr, ptr %20, align 8
  tail call void %21(ptr dead_on_unwind writable sret(%"class.std::shared_ptr") align 8 %0, ptr noundef nonnull align 8 dereferenceable(24) %18, i32 noundef %2)
  ret void
}